target datalayout = "e-m:e-p270:32:32-p271:32:32-p272:64:64-i64:64-i128:128-f80:128-n8:16:32:64-S128"
target triple = "x86_64-pc-linux-gnu"

%struct.yy_buffer_state = type { ptr, ptr, ptr, i32, i32, i32, i32, i32, i32, i32, i32, i32 }

@.str.14 = private unnamed_addr constant [42 x i8] c"out of dynamic memory in yy_scan_buffer()\00", align 1
@.str.15 = private unnamed_addr constant [41 x i8] c"out of dynamic memory in yy_scan_bytes()\00", align 1
@.str.16 = private unnamed_addr constant [30 x i8] c"bad buffer in yy_scan_bytes()\00", align 1

; Function Attrs: nounwind uwtable
define hidden ptr @Radius__scan_buffer(ptr noundef %0, i64 noundef %1, ptr noundef %2) #0 {
  %4 = alloca ptr, align 8
  %5 = alloca ptr, align 8
  %6 = alloca i64, align 8
  %7 = alloca ptr, align 8
  %8 = alloca ptr, align 8
  store ptr %0, ptr %5, align 8
  store i64 %1, ptr %6, align 8
  store ptr %2, ptr %7, align 8
  %9 = load i64, ptr %6, align 8
  %10 = icmp ult i64 %9, 2
  br i1 %10, label %27, label %11

11:                                               ; preds = %3
  %12 = load ptr, ptr %5, align 8
  %13 = load i64, ptr %6, align 8
  %14 = sub i64 %13, 2
  %15 = getelementptr i8, ptr %12, i64 %14
  %16 = load i8, ptr %15, align 1
  %17 = sext i8 %16 to i32
  %18 = icmp ne i32 %17, 0
  br i1 %18, label %27, label %19

19:                                               ; preds = %11
  %20 = load ptr, ptr %5, align 8
  %21 = load i64, ptr %6, align 8
  %22 = sub i64 %21, 1
  %23 = getelementptr i8, ptr %20, i64 %22
  %24 = load i8, ptr %23, align 1
  %25 = sext i8 %24 to i32
  %26 = icmp ne i32 %25, 0
  br i1 %26, label %27, label %28

27:                                               ; preds = %19, %11, %3
  store ptr null, ptr %4, align 8
  br label %65

28:                                               ; preds = %19
  %29 = call noalias ptr @malloc(i64 noundef 64) #16
  store ptr %29, ptr %8, align 8
  %30 = load ptr, ptr %8, align 8
  %31 = icmp ne ptr %30, null
  br i1 %31, label %34, label %32

32:                                               ; preds = %28
  %33 = load ptr, ptr %7, align 8
  call void @yy_fatal_error(ptr noundef @.str.14, ptr noundef %33) #15
  unreachable

34:                                               ; preds = %28
  %35 = load i64, ptr %6, align 8
  %36 = sub i64 %35, 2
  %37 = trunc i64 %36 to i32
  %38 = load ptr, ptr %8, align 8
  %39 = getelementptr inbounds %struct.yy_buffer_state, ptr %38, i32 0, i32 3
  store i32 %37, ptr %39, align 8
  %40 = load ptr, ptr %5, align 8
  %41 = load ptr, ptr %8, align 8
  %42 = getelementptr inbounds %struct.yy_buffer_state, ptr %41, i32 0, i32 1
  store ptr %40, ptr %42, align 8
  %43 = load ptr, ptr %8, align 8
  %44 = getelementptr inbounds %struct.yy_buffer_state, ptr %43, i32 0, i32 2
  store ptr %40, ptr %44, align 8
  %45 = load ptr, ptr %8, align 8
  %46 = getelementptr inbounds %struct.yy_buffer_state, ptr %45, i32 0, i32 5
  store i32 0, ptr %46, align 8
  %47 = load ptr, ptr %8, align 8
  %48 = getelementptr inbounds %struct.yy_buffer_state, ptr %47, i32 0, i32 0
  store ptr null, ptr %48, align 8
  %49 = load ptr, ptr %8, align 8
  %50 = getelementptr inbounds %struct.yy_buffer_state, ptr %49, i32 0, i32 3
  %51 = load i32, ptr %50, align 8
  %52 = load ptr, ptr %8, align 8
  %53 = getelementptr inbounds %struct.yy_buffer_state, ptr %52, i32 0, i32 4
  store i32 %51, ptr %53, align 4
  %54 = load ptr, ptr %8, align 8
  %55 = getelementptr inbounds %struct.yy_buffer_state, ptr %54, i32 0, i32 6
  store i32 0, ptr %55, align 4
  %56 = load ptr, ptr %8, align 8
  %57 = getelementptr inbounds %struct.yy_buffer_state, ptr %56, i32 0, i32 7
  store i32 1, ptr %57, align 8
  %58 = load ptr, ptr %8, align 8
  %59 = getelementptr inbounds %struct.yy_buffer_state, ptr %58, i32 0, i32 10
  store i32 0, ptr %59, align 4
  %60 = load ptr, ptr %8, align 8
  %61 = getelementptr inbounds %struct.yy_buffer_state, ptr %60, i32 0, i32 11
  store i32 0, ptr %61, align 8
  %62 = load ptr, ptr %8, align 8
  %63 = load ptr, ptr %7, align 8
  call void @Radius__switch_to_buffer(ptr noundef %62, ptr noundef %63)
  %64 = load ptr, ptr %8, align 8
  store ptr %64, ptr %4, align 8
  br label %65

65:                                               ; preds = %34, %27
  %66 = load ptr, ptr %4, align 8
  ret ptr %66
}

; Function Attrs: nounwind uwtable
define hidden ptr @Radius__scan_bytes(ptr noundef %0, i32 noundef %1, ptr noundef %2) #0 {
  %4 = alloca ptr, align 8
  %5 = alloca i32, align 4
  %6 = alloca ptr, align 8
  %7 = alloca ptr, align 8
  %8 = alloca ptr, align 8
  %9 = alloca i64, align 8
  %10 = alloca i32, align 4
  store ptr %0, ptr %4, align 8
  store i32 %1, ptr %5, align 4
  store ptr %2, ptr %6, align 8
  %11 = load i32, ptr %5, align 4
  %12 = add i32 %11, 2
  %13 = sext i32 %12 to i64
  store i64 %13, ptr %9, align 8
  %14 = load i64, ptr %9, align 8
  %15 = call noalias ptr @malloc(i64 noundef %14) #16
  store ptr %15, ptr %8, align 8
  %16 = load ptr, ptr %8, align 8
  %17 = icmp ne ptr %16, null
  br i1 %17, label %20, label %18

18:                                               ; preds = %3
  %19 = load ptr, ptr %6, align 8
  call void @yy_fatal_error(ptr noundef @.str.15, ptr noundef %19) #15
  unreachable

20:                                               ; preds = %3
  store i32 0, ptr %10, align 4
  br label %21

21:                                               ; preds = %35, %20
  %22 = load i32, ptr %10, align 4
  %23 = load i32, ptr %5, align 4
  %24 = icmp slt i32 %22, %23
  br i1 %24, label %25, label %38

25:                                               ; preds = %21
  %26 = load ptr, ptr %4, align 8
  %27 = load i32, ptr %10, align 4
  %28 = sext i32 %27 to i64
  %29 = getelementptr i8, ptr %26, i64 %28
  %30 = load i8, ptr %29, align 1
  %31 = load ptr, ptr %8, align 8
  %32 = load i32, ptr %10, align 4
  %33 = sext i32 %32 to i64
  %34 = getelementptr i8, ptr %31, i64 %33
  store i8 %30, ptr %34, align 1
  br label %35

35:                                               ; preds = %25
  %36 = load i32, ptr %10, align 4
  %37 = add i32 %36, 1
  store i32 %37, ptr %10, align 4
  br label %21, !llvm.loop !14

38:                                               ; preds = %21
  %39 = load ptr, ptr %8, align 8
  %40 = load i32, ptr %5, align 4
  %41 = add i32 %40, 1
  %42 = sext i32 %41 to i64
  %43 = getelementptr i8, ptr %39, i64 %42
  store i8 0, ptr %43, align 1
  %44 = load ptr, ptr %8, align 8
  %45 = load i32, ptr %5, align 4
  %46 = sext i32 %45 to i64
  %47 = getelementptr i8, ptr %44, i64 %46
  store i8 0, ptr %47, align 1
  %48 = load ptr, ptr %8, align 8
  %49 = load i64, ptr %9, align 8
  %50 = load ptr, ptr %6, align 8
  %51 = call ptr @Radius__scan_buffer(ptr noundef %48, i64 noundef %49, ptr noundef %50)
  store ptr %51, ptr %7, align 8
  %52 = load ptr, ptr %7, align 8
  %53 = icmp ne ptr %52, null
  br i1 %53, label %56, label %54

54:                                               ; preds = %38
  %55 = load ptr, ptr %6, align 8
  call void @yy_fatal_error(ptr noundef @.str.16, ptr noundef %55) #15
  unreachable

56:                                               ; preds = %38
  %57 = load ptr, ptr %7, align 8
  %58 = getelementptr inbounds %struct.yy_buffer_state, ptr %57, i32 0, i32 5
  store i32 1, ptr %58, align 8
  %59 = load ptr, ptr %7, align 8
  ret ptr %59
}